target datalayout = "e-m:e-p270:32:32-p271:32:32-p272:64:64-i64:64-i128:128-f80:128-n8:16:32:64-S128"
target triple = "x86_64-pc-linux-gnu"

%"class.pxrInternal_v0_24__pxrReserved__::GfMatrix4f" = type { %"class.pxrInternal_v0_24__pxrReserved__::GfMatrixData" }
%"class.pxrInternal_v0_24__pxrReserved__::GfMatrixData" = type { [16 x float] }
%"struct.std::_Vector_base.7" = type { %"struct.std::_Vector_base<std::vector<float>, std::allocator<std::vector<float>>>::_Vector_impl" }
%"struct.std::_Vector_base<std::vector<float>, std::allocator<std::vector<float>>>::_Vector_impl" = type { %"struct.std::_Vector_base<std::vector<float>, std::allocator<std::vector<float>>>::_Vector_impl_data" }
%"struct.std::_Vector_base<std::vector<float>, std::allocator<std::vector<float>>>::_Vector_impl_data" = type { ptr, ptr, ptr }
%"class.std::vector.11" = type { %"struct.std::_Vector_base.12" }
%"struct.std::_Vector_base.12" = type { %"struct.std::_Vector_base<float, std::allocator<float>>::_Vector_impl" }
%"struct.std::_Vector_base<float, std::allocator<float>>::_Vector_impl" = type { %"struct.std::_Vector_base<float, std::allocator<float>>::_Vector_impl_data" }
%"struct.std::_Vector_base<float, std::allocator<float>>::_Vector_impl_data" = type { ptr, ptr, ptr }

; Function Attrs: mustprogress nounwind uwtable
define linkonce_odr noundef ptr @_ZN32pxrInternal_v0_24__pxrReserved__12GfMatrixDataIfLi4ELi4EEixEi(ptr noundef nonnull align 4 dereferenceable(64) %0, i32 noundef %1) #2 comdat align 2 {
  %3 = alloca ptr, align 8
  %4 = alloca i32, align 4
  store ptr %0, ptr %3, align 8
  store i32 %1, ptr %4, align 4
  %5 = load ptr, ptr %3, align 8
  %6 = getelementptr inbounds nuw %"class.pxrInternal_v0_24__pxrReserved__::GfMatrixData", ptr %5, i32 0, i32 0
  %7 = getelementptr inbounds [16 x float], ptr %6, i64 0, i64 0
  %8 = load i32, ptr %4, align 4
  %9 = mul nsw i32 %8, 4
  %10 = sext i32 %9 to i64
  %11 = getelementptr inbounds float, ptr %7, i64 %10
  ret ptr %11
}

; Function Attrs: mustprogress uwtable
define linkonce_odr noundef nonnull align 4 dereferenceable(64) ptr @_ZN32pxrInternal_v0_24__pxrReserved__10GfMatrix4f3SetEPA4_Kf(ptr noundef nonnull align 4 dereferenceable(64) %0, ptr noundef %1) #0 comdat align 2 {
  %3 = alloca ptr, align 8
  %4 = alloca ptr, align 8
  store ptr %0, ptr %3, align 8
  store ptr %1, ptr %4, align 8
  %5 = load ptr, ptr %3, align 8
  %6 = load ptr, ptr %4, align 8
  %7 = getelementptr inbounds [4 x float], ptr %6, i64 0
  %8 = getelementptr inbounds [4 x float], ptr %7, i64 0, i64 0
  %9 = load float, ptr %8, align 4
  %10 = getelementptr inbounds nuw %"class.pxrInternal_v0_24__pxrReserved__::GfMatrix4f", ptr %5, i32 0, i32 0
  %11 = call noundef ptr @_ZN32pxrInternal_v0_24__pxrReserved__12GfMatrixDataIfLi4ELi4EEixEi(ptr noundef nonnull align 4 dereferenceable(64) %10, i32 noundef 0)
  %12 = getelementptr inbounds float, ptr %11, i64 0
  store float %9, ptr %12, align 4
  %13 = load ptr, ptr %4, align 8
  %14 = getelementptr inbounds [4 x float], ptr %13, i64 0
  %15 = getelementptr inbounds [4 x float], ptr %14, i64 0, i64 1
  %16 = load float, ptr %15, align 4
  %17 = getelementptr inbounds nuw %"class.pxrInternal_v0_24__pxrReserved__::GfMatrix4f", ptr %5, i32 0, i32 0
  %18 = call noundef ptr @_ZN32pxrInternal_v0_24__pxrReserved__12GfMatrixDataIfLi4ELi4EEixEi(ptr noundef nonnull align 4 dereferenceable(64) %17, i32 noundef 0)
  %19 = getelementptr inbounds float, ptr %18, i64 1
  store float %16, ptr %19, align 4
  %20 = load ptr, ptr %4, align 8
  %21 = getelementptr inbounds [4 x float], ptr %20, i64 0
  %22 = getelementptr inbounds [4 x float], ptr %21, i64 0, i64 2
  %23 = load float, ptr %22, align 4
  %24 = getelementptr inbounds nuw %"class.pxrInternal_v0_24__pxrReserved__::GfMatrix4f", ptr %5, i32 0, i32 0
  %25 = call noundef ptr @_ZN32pxrInternal_v0_24__pxrReserved__12GfMatrixDataIfLi4ELi4EEixEi(ptr noundef nonnull align 4 dereferenceable(64) %24, i32 noundef 0)
  %26 = getelementptr inbounds float, ptr %25, i64 2
  store float %23, ptr %26, align 4
  %27 = load ptr, ptr %4, align 8
  %28 = getelementptr inbounds [4 x float], ptr %27, i64 0
  %29 = getelementptr inbounds [4 x float], ptr %28, i64 0, i64 3
  %30 = load float, ptr %29, align 4
  %31 = getelementptr inbounds nuw %"class.pxrInternal_v0_24__pxrReserved__::GfMatrix4f", ptr %5, i32 0, i32 0
  %32 = call noundef ptr @_ZN32pxrInternal_v0_24__pxrReserved__12GfMatrixDataIfLi4ELi4EEixEi(ptr noundef nonnull align 4 dereferenceable(64) %31, i32 noundef 0)
  %33 = getelementptr inbounds float, ptr %32, i64 3
  store float %30, ptr %33, align 4
  %34 = load ptr, ptr %4, align 8
  %35 = getelementptr inbounds [4 x float], ptr %34, i64 1
  %36 = getelementptr inbounds [4 x float], ptr %35, i64 0, i64 0
  %37 = load float, ptr %36, align 4
  %38 = getelementptr inbounds nuw %"class.pxrInternal_v0_24__pxrReserved__::GfMatrix4f", ptr %5, i32 0, i32 0
  %39 = call noundef ptr @_ZN32pxrInternal_v0_24__pxrReserved__12GfMatrixDataIfLi4ELi4EEixEi(ptr noundef nonnull align 4 dereferenceable(64) %38, i32 noundef 1)
  %40 = getelementptr inbounds float, ptr %39, i64 0
  store float %37, ptr %40, align 4
  %41 = load ptr, ptr %4, align 8
  %42 = getelementptr inbounds [4 x float], ptr %41, i64 1
  %43 = getelementptr inbounds [4 x float], ptr %42, i64 0, i64 1
  %44 = load float, ptr %43, align 4
  %45 = getelementptr inbounds nuw %"class.pxrInternal_v0_24__pxrReserved__::GfMatrix4f", ptr %5, i32 0, i32 0
  %46 = call noundef ptr @_ZN32pxrInternal_v0_24__pxrReserved__12GfMatrixDataIfLi4ELi4EEixEi(ptr noundef nonnull align 4 dereferenceable(64) %45, i32 noundef 1)
  %47 = getelementptr inbounds float, ptr %46, i64 1
  store float %44, ptr %47, align 4
  %48 = load ptr, ptr %4, align 8
  %49 = getelementptr inbounds [4 x float], ptr %48, i64 1
  %50 = getelementptr inbounds [4 x float], ptr %49, i64 0, i64 2
  %51 = load float, ptr %50, align 4
  %52 = getelementptr inbounds nuw %"class.pxrInternal_v0_24__pxrReserved__::GfMatrix4f", ptr %5, i32 0, i32 0
  %53 = call noundef ptr @_ZN32pxrInternal_v0_24__pxrReserved__12GfMatrixDataIfLi4ELi4EEixEi(ptr noundef nonnull align 4 dereferenceable(64) %52, i32 noundef 1)
  %54 = getelementptr inbounds float, ptr %53, i64 2
  store float %51, ptr %54, align 4
  %55 = load ptr, ptr %4, align 8
  %56 = getelementptr inbounds [4 x float], ptr %55, i64 1
  %57 = getelementptr inbounds [4 x float], ptr %56, i64 0, i64 3
  %58 = load float, ptr %57, align 4
  %59 = getelementptr inbounds nuw %"class.pxrInternal_v0_24__pxrReserved__::GfMatrix4f", ptr %5, i32 0, i32 0
  %60 = call noundef ptr @_ZN32pxrInternal_v0_24__pxrReserved__12GfMatrixDataIfLi4ELi4EEixEi(ptr noundef nonnull align 4 dereferenceable(64) %59, i32 noundef 1)
  %61 = getelementptr inbounds float, ptr %60, i64 3
  store float %58, ptr %61, align 4
  %62 = load ptr, ptr %4, align 8
  %63 = getelementptr inbounds [4 x float], ptr %62, i64 2
  %64 = getelementptr inbounds [4 x float], ptr %63, i64 0, i64 0
  %65 = load float, ptr %64, align 4
  %66 = getelementptr inbounds nuw %"class.pxrInternal_v0_24__pxrReserved__::GfMatrix4f", ptr %5, i32 0, i32 0
  %67 = call noundef ptr @_ZN32pxrInternal_v0_24__pxrReserved__12GfMatrixDataIfLi4ELi4EEixEi(ptr noundef nonnull align 4 dereferenceable(64) %66, i32 noundef 2)
  %68 = getelementptr inbounds float, ptr %67, i64 0
  store float %65, ptr %68, align 4
  %69 = load ptr, ptr %4, align 8
  %70 = getelementptr inbounds [4 x float], ptr %69, i64 2
  %71 = getelementptr inbounds [4 x float], ptr %70, i64 0, i64 1
  %72 = load float, ptr %71, align 4
  %73 = getelementptr inbounds nuw %"class.pxrInternal_v0_24__pxrReserved__::GfMatrix4f", ptr %5, i32 0, i32 0
  %74 = call noundef ptr @_ZN32pxrInternal_v0_24__pxrReserved__12GfMatrixDataIfLi4ELi4EEixEi(ptr noundef nonnull align 4 dereferenceable(64) %73, i32 noundef 2)
  %75 = getelementptr inbounds float, ptr %74, i64 1
  store float %72, ptr %75, align 4
  %76 = load ptr, ptr %4, align 8
  %77 = getelementptr inbounds [4 x float], ptr %76, i64 2
  %78 = getelementptr inbounds [4 x float], ptr %77, i64 0, i64 2
  %79 = load float, ptr %78, align 4
  %80 = getelementptr inbounds nuw %"class.pxrInternal_v0_24__pxrReserved__::GfMatrix4f", ptr %5, i32 0, i32 0
  %81 = call noundef ptr @_ZN32pxrInternal_v0_24__pxrReserved__12GfMatrixDataIfLi4ELi4EEixEi(ptr noundef nonnull align 4 dereferenceable(64) %80, i32 noundef 2)
  %82 = getelementptr inbounds float, ptr %81, i64 2
  store float %79, ptr %82, align 4
  %83 = load ptr, ptr %4, align 8
  %84 = getelementptr inbounds [4 x float], ptr %83, i64 2
  %85 = getelementptr inbounds [4 x float], ptr %84, i64 0, i64 3
  %86 = load float, ptr %85, align 4
  %87 = getelementptr inbounds nuw %"class.pxrInternal_v0_24__pxrReserved__::GfMatrix4f", ptr %5, i32 0, i32 0
  %88 = call noundef ptr @_ZN32pxrInternal_v0_24__pxrReserved__12GfMatrixDataIfLi4ELi4EEixEi(ptr noundef nonnull align 4 dereferenceable(64) %87, i32 noundef 2)
  %89 = getelementptr inbounds float, ptr %88, i64 3
  store float %86, ptr %89, align 4
  %90 = load ptr, ptr %4, align 8
  %91 = getelementptr inbounds [4 x float], ptr %90, i64 3
  %92 = getelementptr inbounds [4 x float], ptr %91, i64 0, i64 0
  %93 = load float, ptr %92, align 4
  %94 = getelementptr inbounds nuw %"class.pxrInternal_v0_24__pxrReserved__::GfMatrix4f", ptr %5, i32 0, i32 0
  %95 = call noundef ptr @_ZN32pxrInternal_v0_24__pxrReserved__12GfMatrixDataIfLi4ELi4EEixEi(ptr noundef nonnull align 4 dereferenceable(64) %94, i32 noundef 3)
  %96 = getelementptr inbounds float, ptr %95, i64 0
  store float %93, ptr %96, align 4
  %97 = load ptr, ptr %4, align 8
  %98 = getelementptr inbounds [4 x float], ptr %97, i64 3
  %99 = getelementptr inbounds [4 x float], ptr %98, i64 0, i64 1
  %100 = load float, ptr %99, align 4
  %101 = getelementptr inbounds nuw %"class.pxrInternal_v0_24__pxrReserved__::GfMatrix4f", ptr %5, i32 0, i32 0
  %102 = call noundef ptr @_ZN32pxrInternal_v0_24__pxrReserved__12GfMatrixDataIfLi4ELi4EEixEi(ptr noundef nonnull align 4 dereferenceable(64) %101, i32 noundef 3)
  %103 = getelementptr inbounds float, ptr %102, i64 1
  store float %100, ptr %103, align 4
  %104 = load ptr, ptr %4, align 8
  %105 = getelementptr inbounds [4 x float], ptr %104, i64 3
  %106 = getelementptr inbounds [4 x float], ptr %105, i64 0, i64 2
  %107 = load float, ptr %106, align 4
  %108 = getelementptr inbounds nuw %"class.pxrInternal_v0_24__pxrReserved__::GfMatrix4f", ptr %5, i32 0, i32 0
  %109 = call noundef ptr @_ZN32pxrInternal_v0_24__pxrReserved__12GfMatrixDataIfLi4ELi4EEixEi(ptr noundef nonnull align 4 dereferenceable(64) %108, i32 noundef 3)
  %110 = getelementptr inbounds float, ptr %109, i64 2
  store float %107, ptr %110, align 4
  %111 = load ptr, ptr %4, align 8
  %112 = getelementptr inbounds [4 x float], ptr %111, i64 3
  %113 = getelementptr inbounds [4 x float], ptr %112, i64 0, i64 3
  %114 = load float, ptr %113, align 4
  %115 = getelementptr inbounds nuw %"class.pxrInternal_v0_24__pxrReserved__::GfMatrix4f", ptr %5, i32 0, i32 0
  %116 = call noundef ptr @_ZN32pxrInternal_v0_24__pxrReserved__12GfMatrixDataIfLi4ELi4EEixEi(ptr noundef nonnull align 4 dereferenceable(64) %115, i32 noundef 3)
  %117 = getelementptr inbounds float, ptr %116, i64 3
  store float %114, ptr %117, align 4
  ret ptr %5
}

; Function Attrs: mustprogress nounwind uwtable
define linkonce_odr noundef nonnull align 4 dereferenceable(4) ptr @_ZNKSt6vectorIfSaIfEEixEm(ptr noundef nonnull align 8 dereferenceable(24) %0, i64 noundef %1) #2 comdat align 2 {
  %3 = alloca ptr, align 8
  %4 = alloca i64, align 8
  store ptr %0, ptr %3, align 8
  store i64 %1, ptr %4, align 8
  %5 = load ptr, ptr %3, align 8
  %6 = getelementptr inbounds nuw %"struct.std::_Vector_base.12", ptr %5, i32 0, i32 0
  %7 = getelementptr inbounds nuw %"struct.std::_Vector_base<float, std::allocator<float>>::_Vector_impl_data", ptr %6, i32 0, i32 0
  %8 = load ptr, ptr %7, align 8
  %9 = load i64, ptr %4, align 8
  %10 = getelementptr inbounds float, ptr %8, i64 %9
  ret ptr %10
}

; Function Attrs: mustprogress nounwind uwtable
define linkonce_odr noundef i64 @_ZNKSt6vectorIfSaIfEE4sizeEv(ptr noundef nonnull align 8 dereferenceable(24) %0) #2 comdat align 2 {
  %2 = alloca ptr, align 8
  store ptr %0, ptr %2, align 8
  %3 = load ptr, ptr %2, align 8
  %4 = getelementptr inbounds nuw %"struct.std::_Vector_base.12", ptr %3, i32 0, i32 0
  %5 = getelementptr inbounds nuw %"struct.std::_Vector_base<float, std::allocator<float>>::_Vector_impl_data", ptr %4, i32 0, i32 1
  %6 = load ptr, ptr %5, align 8
  %7 = getelementptr inbounds nuw %"struct.std::_Vector_base.12", ptr %3, i32 0, i32 0
  %8 = getelementptr inbounds nuw %"struct.std::_Vector_base<float, std::allocator<float>>::_Vector_impl_data", ptr %7, i32 0, i32 0
  %9 = load ptr, ptr %8, align 8
  %10 = ptrtoint ptr %6 to i64
  %11 = ptrtoint ptr %9 to i64
  %12 = sub i64 %10, %11
  %13 = sdiv exact i64 %12, 4
  ret i64 %13
}

; Function Attrs: mustprogress nounwind uwtable
define linkonce_odr noundef nonnull align 8 dereferenceable(24) ptr @_ZNKSt6vectorIS_IfSaIfEESaIS1_EEixEm(ptr noundef nonnull align 8 dereferenceable(24) %0, i64 noundef %1) #2 comdat align 2 {
  %3 = alloca ptr, align 8
  %4 = alloca i64, align 8
  store ptr %0, ptr %3, align 8
  store i64 %1, ptr %4, align 8
  %5 = load ptr, ptr %3, align 8
  %6 = getelementptr inbounds nuw %"struct.std::_Vector_base.7", ptr %5, i32 0, i32 0
  %7 = getelementptr inbounds nuw %"struct.std::_Vector_base<std::vector<float>, std::allocator<std::vector<float>>>::_Vector_impl_data", ptr %6, i32 0, i32 0
  %8 = load ptr, ptr %7, align 8
  %9 = load i64, ptr %4, align 8
  %10 = getelementptr inbounds %"class.std::vector.11", ptr %8, i64 %9
  ret ptr %10
}

; Function Attrs: mustprogress nounwind uwtable
define linkonce_odr noundef i64 @_ZNKSt6vectorIS_IfSaIfEESaIS1_EE4sizeEv(ptr noundef nonnull align 8 dereferenceable(24) %0) #2 comdat align 2 {
  %2 = alloca ptr, align 8
  store ptr %0, ptr %2, align 8
  %3 = load ptr, ptr %2, align 8
  %4 = getelementptr inbounds nuw %"struct.std::_Vector_base.7", ptr %3, i32 0, i32 0
  %5 = getelementptr inbounds nuw %"struct.std::_Vector_base<std::vector<float>, std::allocator<std::vector<float>>>::_Vector_impl_data", ptr %4, i32 0, i32 1
  %6 = load ptr, ptr %5, align 8
  %7 = getelementptr inbounds nuw %"struct.std::_Vector_base.7", ptr %3, i32 0, i32 0
  %8 = getelementptr inbounds nuw %"struct.std::_Vector_base<std::vector<float>, std::allocator<std::vector<float>>>::_Vector_impl_data", ptr %7, i32 0, i32 0
  %9 = load ptr, ptr %8, align 8
  %10 = ptrtoint ptr %6 to i64
  %11 = ptrtoint ptr %9 to i64
  %12 = sub i64 %10, %11
  %13 = sdiv exact i64 %12, 24
  ret i64 %13
}

; Function Attrs: mustprogress uwtable
define void @_ZN32pxrInternal_v0_24__pxrReserved__10GfMatrix4fC2ERKSt6vectorIS1_IfSaIfEESaIS3_EE(ptr noundef nonnull align 4 dereferenceable(64) %0, ptr noundef nonnull align 8 dereferenceable(24) %1) unnamed_addr #0 align 2 {
  %3 = alloca ptr, align 8
  %4 = alloca ptr, align 8
  %5 = alloca [4 x [4 x float]], align 16
  %6 = alloca i64, align 8
  %7 = alloca i64, align 8
  store ptr %0, ptr %3, align 8
  store ptr %1, ptr %4, align 8
  %8 = load ptr, ptr %3, align 8
  call void @llvm.memset.p0.i64(ptr align 16 %5, i8 0, i64 64, i1 false)
  %9 = getelementptr inbounds [4 x [4 x float]], ptr %5, i32 0, i32 0
  %10 = getelementptr inbounds [4 x float], ptr %9, i32 0, i32 0
  store float 1.000000e+00, ptr %10, align 16
  %11 = getelementptr inbounds [4 x [4 x float]], ptr %5, i32 0, i32 1
  %12 = getelementptr inbounds [4 x float], ptr %11, i32 0, i32 1
  store float 1.000000e+00, ptr %12, align 4
  %13 = getelementptr inbounds [4 x [4 x float]], ptr %5, i32 0, i32 2
  %14 = getelementptr inbounds [4 x float], ptr %13, i32 0, i32 2
  store float 1.000000e+00, ptr %14, align 8
  %15 = getelementptr inbounds [4 x [4 x float]], ptr %5, i32 0, i32 3
  %16 = getelementptr inbounds [4 x float], ptr %15, i32 0, i32 3
  store float 1.000000e+00, ptr %16, align 4
  store i64 0, ptr %6, align 8
  br label %17

17:                                               ; preds = %55, %2
  %18 = load i64, ptr %6, align 8
  %19 = icmp ult i64 %18, 4
  br i1 %19, label %20, label %25

20:                                               ; preds = %17
  %21 = load i64, ptr %6, align 8
  %22 = load ptr, ptr %4, align 8
  %23 = call noundef i64 @_ZNKSt6vectorIS_IfSaIfEESaIS1_EE4sizeEv(ptr noundef nonnull align 8 dereferenceable(24) %22) #9
  %24 = icmp ult i64 %21, %23
  br label %25

25:                                               ; preds = %20, %17
  %26 = phi i1 [ false, %17 ], [ %24, %20 ]
  br i1 %26, label %27, label %58

27:                                               ; preds = %25
  store i64 0, ptr %7, align 8
  br label %28

28:                                               ; preds = %51, %27
  %29 = load i64, ptr %7, align 8
  %30 = icmp ult i64 %29, 4
  br i1 %30, label %31, label %38

31:                                               ; preds = %28
  %32 = load i64, ptr %7, align 8
  %33 = load ptr, ptr %4, align 8
  %34 = load i64, ptr %6, align 8
  %35 = call noundef nonnull align 8 dereferenceable(24) ptr @_ZNKSt6vectorIS_IfSaIfEESaIS1_EEixEm(ptr noundef nonnull align 8 dereferenceable(24) %33, i64 noundef %34) #9
  %36 = call noundef i64 @_ZNKSt6vectorIfSaIfEE4sizeEv(ptr noundef nonnull align 8 dereferenceable(24) %35) #9
  %37 = icmp ult i64 %32, %36
  br label %38

38:                                               ; preds = %31, %28
  %39 = phi i1 [ false, %28 ], [ %37, %31 ]
  br i1 %39, label %40, label %54

40:                                               ; preds = %38
  %41 = load ptr, ptr %4, align 8
  %42 = load i64, ptr %6, align 8
  %43 = call noundef nonnull align 8 dereferenceable(24) ptr @_ZNKSt6vectorIS_IfSaIfEESaIS1_EEixEm(ptr noundef nonnull align 8 dereferenceable(24) %41, i64 noundef %42) #9
  %44 = load i64, ptr %7, align 8
  %45 = call noundef nonnull align 4 dereferenceable(4) ptr @_ZNKSt6vectorIfSaIfEEixEm(ptr noundef nonnull align 8 dereferenceable(24) %43, i64 noundef %44) #9
  %46 = load float, ptr %45, align 4
  %47 = load i64, ptr %6, align 8
  %48 = getelementptr inbounds [4 x [4 x float]], ptr %5, i64 0, i64 %47
  %49 = load i64, ptr %7, align 8
  %50 = getelementptr inbounds [4 x float], ptr %48, i64 0, i64 %49
  store float %46, ptr %50, align 4
  br label %51

51:                                               ; preds = %40
  %52 = load i64, ptr %7, align 8
  %53 = add i64 %52, 1
  store i64 %53, ptr %7, align 8
  br label %28, !llvm.loop !7

54:                                               ; preds = %38
  br label %55

55:                                               ; preds = %54
  %56 = load i64, ptr %6, align 8
  %57 = add i64 %56, 1
  store i64 %57, ptr %6, align 8
  br label %17, !llvm.loop !8

58:                                               ; preds = %25
  %59 = getelementptr inbounds [4 x [4 x float]], ptr %5, i64 0, i64 0
  %60 = call noundef nonnull align 4 dereferenceable(64) ptr @_ZN32pxrInternal_v0_24__pxrReserved__10GfMatrix4f3SetEPA4_Kf(ptr noundef nonnull align 4 dereferenceable(64) %8, ptr noundef %59)
  ret void
}